; Function Attrs: nofree norecurse nosync nounwind memory(read, inaccessiblemem: none) uwtable
define i32 @Gia_ManClockDomainNum(ptr noundef readonly captures(none) %0) local_unnamed_addr #3 {
  %2 = getelementptr inbounds nuw i8, ptr %0, i64 472
  %3 = load ptr, ptr %2, align 8, !tbaa !28
  %4 = icmp eq ptr %3, null
  br i1 %4, label %.loopexit, label %5

5:                                                ; preds = %1
  %6 = getelementptr inbounds nuw i8, ptr %3, i64 4
  %7 = load i32, ptr %6, align 4, !tbaa !29
  %8 = icmp eq i32 %7, 0
  br i1 %8, label %.loopexit, label %9

9:                                                ; preds = %5
  %10 = getelementptr inbounds nuw i8, ptr %3, i64 8
  %11 = load ptr, ptr %10, align 8, !tbaa !32
  %12 = load i32, ptr %11, align 4, !tbaa !33
  %13 = icmp sgt i32 %7, 1
  br i1 %13, label %.lr.ph.preheader.i, label %Vec_IntFindMax.exit

.lr.ph.preheader.i:                               ; preds = %9
  %wide.trip.count.i = zext nneg i32 %7 to i64
  br label %.lr.ph.i

.lr.ph.i:                                         ; preds = %.lr.ph.i, %.lr.ph.preheader.i
  %indvars.iv.i = phi i64 [ 1, %.lr.ph.preheader.i ], [ %indvars.iv.next.i, %.lr.ph.i ]
  %.015.i = phi i32 [ %12, %.lr.ph.preheader.i ], [ %spec.select.i, %.lr.ph.i ]
  %14 = getelementptr inbounds nuw i32, ptr %11, i64 %indvars.iv.i
  %15 = load i32, ptr %14, align 4, !tbaa !33
  %spec.select.i = tail call i32 @llvm.smax.i32(i32 %.015.i, i32 %15)
  %indvars.iv.next.i = add nuw nsw i64 %indvars.iv.i, 1
  %exitcond.not.i = icmp eq i64 %indvars.iv.next.i, %wide.trip.count.i
  br i1 %exitcond.not.i, label %Vec_IntFindMax.exit, label %.lr.ph.i, !llvm.loop !34

Vec_IntFindMax.exit:                              ; preds = %.lr.ph.i, %9
  %.012.i = phi i32 [ %12, %9 ], [ %spec.select.i, %.lr.ph.i ]
  %.not21 = icmp slt i32 %.012.i, 1
  br i1 %.not21, label %.loopexit, label %.lr.ph

.lr.ph:                                           ; preds = %Vec_IntFindMax.exit
  %16 = icmp sgt i32 %7, 0
  %wide.trip.count.i13 = zext nneg i32 %7 to i64
  br i1 %16, label %.lr.ph.split.us, label %.loopexit

.lr.ph.split.us:                                  ; preds = %.lr.ph
  %17 = getelementptr inbounds nuw i8, ptr %3, i64 8
  %18 = load ptr, ptr %17, align 8, !tbaa !32
  br label %.lr.ph.i12.us

.lr.ph.i12.us:                                    ; preds = %Vec_IntCountEntry.exit.us, %.lr.ph.split.us
  %.023.us = phi i32 [ 0, %.lr.ph.split.us ], [ %spec.select.us, %Vec_IntCountEntry.exit.us ]
  %.01022.us = phi i32 [ 1, %.lr.ph.split.us ], [ %26, %Vec_IntCountEntry.exit.us ]
  br label %19

19:                                               ; preds = %19, %.lr.ph.i12.us
  %indvars.iv.i14.us = phi i64 [ 0, %.lr.ph.i12.us ], [ %indvars.iv.next.i15.us, %19 ]
  %.09.i.us = phi i32 [ 0, %.lr.ph.i12.us ], [ %24, %19 ]
  %20 = getelementptr inbounds nuw i32, ptr %18, i64 %indvars.iv.i14.us
  %21 = load i32, ptr %20, align 4, !tbaa !33
  %22 = icmp eq i32 %21, %.01022.us
  %.fr.us = freeze i1 %22
  %23 = zext i1 %.fr.us to i32
  %24 = add i32 %.09.i.us, %23
  %indvars.iv.next.i15.us = add nuw nsw i64 %indvars.iv.i14.us, 1
  %exitcond.not.i16.us = icmp eq i64 %indvars.iv.next.i15.us, %wide.trip.count.i13
  br i1 %exitcond.not.i16.us, label %Vec_IntCountEntry.exit.us, label %19, !llvm.loop !36

Vec_IntCountEntry.exit.us:                        ; preds = %19
  %.not20.us = icmp ne i32 %24, 0
  %25 = zext i1 %.not20.us to i32
  %spec.select.us = add nuw nsw i32 %.023.us, %25
  %26 = add nuw i32 %.01022.us, 1
  %exitcond.not = icmp eq i32 %.01022.us, %.012.i
  br i1 %exitcond.not, label %.loopexit, label %.lr.ph.i12.us, !llvm.loop !37

.loopexit:                                        ; preds = %Vec_IntCountEntry.exit.us, %5, %.lr.ph, %Vec_IntFindMax.exit, %1
  %.09 = phi i32 [ 0, %1 ], [ 0, %Vec_IntFindMax.exit ], [ 0, %.lr.ph ], [ 0, %5 ], [ %spec.select.us, %Vec_IntCountEntry.exit.us ]
  ret i32 %.09
}